; Function Attrs: nounwind uwtable
define zeroext range(i8 0, 2) i8 @Java_sun_print_CUPSPrinter_canConnect(ptr noundef %0, ptr nocapture noundef readnone %1, ptr noundef %2, i32 noundef %3) local_unnamed_addr #0 {
  %5 = load ptr, ptr %0, align 8
  %6 = getelementptr inbounds i8, ptr %5, i64 1352
  %7 = load ptr, ptr %6, align 8
  %8 = tail call ptr %7(ptr noundef nonnull %0, ptr noundef %2, ptr noundef null) #5
  %.not = icmp eq ptr %8, null
  br i1 %.not, label %17, label %9

9:                                                ; preds = %4
  %10 = load ptr, ptr @j2d_httpConnect, align 8
  %11 = tail call ptr %10(ptr noundef nonnull %8, i32 noundef %3) #5
  %12 = load ptr, ptr %0, align 8
  %13 = getelementptr inbounds i8, ptr %12, i64 1360
  %14 = load ptr, ptr %13, align 8
  tail call void %14(ptr noundef nonnull %0, ptr noundef %2, ptr noundef nonnull %8) #5
  %.not14 = icmp eq ptr %11, null
  br i1 %.not14, label %17, label %15

15:                                               ; preds = %9
  %16 = load ptr, ptr @j2d_httpClose, align 8
  tail call void %16(ptr noundef nonnull %11) #5
  br label %17

17:                                               ; preds = %4, %9, %15
  %.0 = phi i8 [ 1, %15 ], [ 0, %9 ], [ 0, %4 ]
  ret i8 %.0
}